; Function Attrs: mustprogress uwtable
define dso_local void @_ZN4Luau7CodeGen3X6418AssemblyBuilderX6419placeUnaryModRegMemEPKcNS1_10OperandX64Ehhh(ptr noundef nonnull align 8 dereferenceable(252) %0, ptr noundef %1, i64 %2, i8 noundef zeroext %3, i8 noundef zeroext %4, i8 noundef zeroext %5) local_unnamed_addr #0 align 2 {
  %7 = getelementptr inbounds nuw i8, ptr %0, i64 80
  %8 = load i8, ptr %7, align 8, !tbaa !14, !range !61, !noundef !62
  %9 = trunc nuw i8 %8 to i1
  br i1 %9, label %10, label %11

10:                                               ; preds = %6
  tail call void @_ZN4Luau7CodeGen3X6418AssemblyBuilderX643logEPKcNS1_10OperandX64E(ptr noundef nonnull align 8 dereferenceable(252) %0, ptr noundef %1, i64 %2)
  br label %11

11:                                               ; preds = %10, %6
  %.sroa.522.0.extract.shift = lshr i64 %2, 16
  %.sroa.522.0.extract.trunc = trunc i64 %.sroa.522.0.extract.shift to i8
  %.sroa.6.0.extract.shift = lshr i64 %2, 24
  %.sroa.6.0.extract.trunc = trunc i64 %.sroa.6.0.extract.shift to i8
  %12 = and i64 %2, 255
  %13 = icmp eq i64 %12, 0
  %14 = and i8 %.sroa.522.0.extract.trunc, 7
  %15 = and i8 %.sroa.6.0.extract.trunc, 15
  %16 = select i1 %13, i8 %14, i8 %15
  %.sroa.0.0.extract.trunc.i = trunc i64 %2 to i8
  switch i8 %.sroa.0.0.extract.trunc.i, label %_ZN4Luau7CodeGen3X6418AssemblyBuilderX648placeRexENS1_10OperandX64E.exit [
    i8 0, label %17
    i8 1, label %27
  ]

17:                                               ; preds = %11
  %18 = icmp eq i8 %14, 4
  %19 = icmp eq i8 %14, 1
  %20 = icmp ugt i8 %.sroa.522.0.extract.trunc, 31
  %21 = and i1 %20, %19
  %22 = or i1 %18, %21
  %23 = select i1 %22, i8 8, i8 0
  %24 = lshr i8 %.sroa.522.0.extract.trunc, 6
  %25 = and i8 %24, 1
  %26 = or disjoint i8 %23, %25
  br label %39

27:                                               ; preds = %11
  %28 = and i64 %2, 251658240
  %29 = icmp eq i64 %28, 67108864
  %30 = select i1 %29, i32 8, i32 0
  %31 = trunc i64 %2 to i32
  %32 = lshr i32 %31, 13
  %33 = and i32 %32, 2
  %34 = or disjoint i32 %30, %33
  %35 = lshr i8 %.sroa.522.0.extract.trunc, 6
  %36 = and i8 %35, 1
  %37 = trunc nuw nsw i32 %34 to i8
  %38 = or disjoint i8 %36, %37
  br label %39

39:                                               ; preds = %27, %17
  %.0.i = phi i8 [ %26, %17 ], [ %38, %27 ]
  %.not.i = icmp eq i8 %.0.i, 0
  br i1 %.not.i, label %_ZN4Luau7CodeGen3X6418AssemblyBuilderX648placeRexENS1_10OperandX64E.exit, label %40

40:                                               ; preds = %39
  %41 = or i8 %.0.i, 64
  %42 = getelementptr inbounds nuw i8, ptr %0, i64 232
  %43 = load ptr, ptr %42, align 8, !tbaa !51
  %44 = getelementptr inbounds nuw i8, ptr %43, i64 1
  store ptr %44, ptr %42, align 8, !tbaa !51
  store i8 %41, ptr %43, align 1, !tbaa !13
  br label %_ZN4Luau7CodeGen3X6418AssemblyBuilderX648placeRexENS1_10OperandX64E.exit

_ZN4Luau7CodeGen3X6418AssemblyBuilderX648placeRexENS1_10OperandX64E.exit: ; preds = %11, %39, %40
  %45 = icmp eq i8 %16, 1
  %46 = select i1 %45, i8 %3, i8 %4
  %47 = getelementptr inbounds nuw i8, ptr %0, i64 232
  %48 = load ptr, ptr %47, align 8, !tbaa !51
  %49 = getelementptr inbounds nuw i8, ptr %48, i64 1
  store ptr %49, ptr %47, align 8, !tbaa !51
  store i8 %46, ptr %48, align 1, !tbaa !13
  tail call void @_ZN4Luau7CodeGen3X6418AssemblyBuilderX6414placeModRegMemENS1_10OperandX64Ehi(ptr noundef nonnull align 8 dereferenceable(252) %0, i64 %2, i8 noundef zeroext %5, i32 noundef 0)
  %50 = getelementptr inbounds nuw i8, ptr %0, i64 248
  %51 = load i32, ptr %50, align 8, !tbaa !63
  %52 = add i32 %51, 1
  store i32 %52, ptr %50, align 8, !tbaa !63
  %53 = getelementptr inbounds nuw i8, ptr %0, i64 240
  %54 = load ptr, ptr %53, align 8, !tbaa !52
  %55 = load ptr, ptr %47, align 8, !tbaa !51
  %56 = ptrtoint ptr %54 to i64
  %57 = ptrtoint ptr %55 to i64
  %58 = sub i64 %56, %57
  %59 = and i64 %58, 4294967280
  %60 = icmp eq i64 %59, 0
  br i1 %60, label %61, label %_ZN4Luau7CodeGen3X6418AssemblyBuilderX646commitEv.exit

61:                                               ; preds = %_ZN4Luau7CodeGen3X6418AssemblyBuilderX648placeRexENS1_10OperandX64E.exit
  tail call void @_ZN4Luau7CodeGen3X6418AssemblyBuilderX646extendEv(ptr noundef nonnull align 8 dereferenceable(252) %0)
  br label %_ZN4Luau7CodeGen3X6418AssemblyBuilderX646commitEv.exit

_ZN4Luau7CodeGen3X6418AssemblyBuilderX646commitEv.exit: ; preds = %_ZN4Luau7CodeGen3X6418AssemblyBuilderX648placeRexENS1_10OperandX64E.exit, %61
  ret void
}